target datalayout = "e-m:e-p270:32:32-p271:32:32-p272:64:64-i64:64-i128:128-f80:128-n8:16:32:64-S128"
target triple = "x86_64-unknown-linux-gnu"

%struct.BlockDriverState = type { i32, i8, i8, i8, i8, i8, ptr, ptr, ptr, %struct.anon, i8, [4096 x i8], [4096 x i8], [4096 x i8], [16 x i8], ptr, [4096 x i8], %struct.BlockLimits, i32, i32, i32, i32, [32 x i8], %union.anon, %union.anon.0, %union.anon.1, i32, [16 x %struct.anon.2], ptr, %struct.anon.3, ptr, ptr, %struct.anon.4, ptr, ptr, i32, ptr, i64, i64, %struct.QemuMutex, %struct.anon.5, %struct.Stat64, i32, i32, i32, i32, i32, i32, %struct.QemuMutex, %struct.anon.6, %struct.CoQueue, i8, i32, i8, %struct.CoMutex, ptr, ptr }
%struct.anon = type { ptr }
%struct.BlockLimits = type { i32, i64, i32, i64, i32, i32, i32, i64, i32, i64, i64, i32, i8, i32, i32, i32, i32, i32, i32, i32 }
%union.anon = type { %struct.QTailQLink }
%struct.QTailQLink = type { ptr, ptr }
%union.anon.0 = type { %struct.QTailQLink }
%union.anon.1 = type { %struct.QTailQLink }
%struct.anon.2 = type { ptr }
%struct.anon.3 = type { ptr }
%struct.anon.4 = type { ptr }
%struct.anon.5 = type { ptr }
%struct.Stat64 = type { i64 }
%struct.QemuMutex = type { %union.pthread_mutex_t, i8 }
%union.pthread_mutex_t = type { %struct.__pthread_mutex_s }
%struct.__pthread_mutex_s = type { i32, i32, i32, i32, i32, i16, i16, %struct.__pthread_internal_list }
%struct.__pthread_internal_list = type { ptr, ptr }
%struct.anon.6 = type { ptr }
%struct.CoQueue = type { %struct.anon.7 }
%struct.anon.7 = type { ptr, ptr }
%struct.CoMutex = type { i32, ptr, %struct.anon.8, %struct.anon.8, i32, i32, ptr }
%struct.anon.8 = type { ptr }
%struct.BDRVQcow2State = type { i32, i32, i32, i32, i32, i32, i32, i32, i32, i32, i32, i32, i32, i32, i64, i64, ptr, ptr, ptr, ptr, i32, %struct.anon.9, ptr, i64, i32, i32, i64, i64, %struct.CoMutex, %struct.Qcow2CryptoHeaderExtension, ptr, ptr, i8, i32, i64, i32, i32, ptr, i32, i64, i64, i32, i32, i8, i32, i32, i64, ptr, ptr, [5 x i8], i8, i32, i8, i64, i64, i64, i64, ptr, %struct.anon.10, %union.anon.11, i8, ptr, ptr, ptr, %struct.CoQueue, i32, ptr, i8, i8, i32 }
%struct.anon.9 = type { ptr }
%struct.Qcow2CryptoHeaderExtension = type { i64, i64 }
%struct.anon.10 = type { ptr }
%union.anon.11 = type { %struct.QTailQLink }
%struct.Qcow2DiscardRegion = type { ptr, i64, i64, %union.anon.15 }
%union.anon.15 = type { %struct.QTailQLink }

@.str.1 = private unnamed_addr constant [31 x i8] c"../qemu/block/qcow2-refcount.c\00", align 1
@.str.55 = private unnamed_addr constant [41 x i8] c"d->bytes + length == new_end - new_start\00", align 1
@__PRETTY_FUNCTION__.update_refcount_discard = private unnamed_addr constant [69 x i8] c"void update_refcount_discard(BlockDriverState *, uint64_t, uint64_t)\00", align 1
@.str.56 = private unnamed_addr constant [71 x i8] c"p->offset == d->offset + d->bytes || d->offset == p->offset + p->bytes\00", align 1

; Function Attrs: nounwind sspstrong uwtable
define internal void @update_refcount_discard(ptr noundef %bs, i64 noundef %offset, i64 noundef %length) #0 {
entry:
  %bs.addr = alloca ptr, align 8
  %offset.addr = alloca i64, align 8
  %length.addr = alloca i64, align 8
  %s = alloca ptr, align 8
  %d = alloca ptr, align 8
  %p = alloca ptr, align 8
  %next = alloca ptr, align 8
  %new_start = alloca i64, align 8
  %_a10 = alloca i64, align 8
  %_b11 = alloca i64, align 8
  %tmp = alloca i64, align 8
  %new_end = alloca i64, align 8
  %_a12 = alloca i64, align 8
  %_b13 = alloca i64, align 8
  %tmp4 = alloca i64, align 8
  %.compoundliteral = alloca %struct.Qcow2DiscardRegion, align 8
  %_a14 = alloca i64, align 8
  %_b15 = alloca i64, align 8
  %tmp96 = alloca i64, align 8
  store ptr %bs, ptr %bs.addr, align 8
  store i64 %offset, ptr %offset.addr, align 8
  store i64 %length, ptr %length.addr, align 8
  %0 = load ptr, ptr %bs.addr, align 8
  %opaque = getelementptr inbounds %struct.BlockDriverState, ptr %0, i32 0, i32 7
  %1 = load ptr, ptr %opaque, align 8
  store ptr %1, ptr %s, align 8
  %2 = load ptr, ptr %s, align 8
  %discards = getelementptr inbounds %struct.BDRVQcow2State, ptr %2, i32 0, i32 59
  %3 = load ptr, ptr %discards, align 8
  store ptr %3, ptr %d, align 8
  br label %for.cond

for.cond:                                         ; preds = %for.inc, %entry
  %4 = load ptr, ptr %d, align 8
  %tobool = icmp ne ptr %4, null
  br i1 %tobool, label %for.body, label %for.end

for.body:                                         ; preds = %for.cond
  %5 = load i64, ptr %offset.addr, align 8
  store i64 %5, ptr %_a10, align 8
  %6 = load ptr, ptr %d, align 8
  %offset1 = getelementptr inbounds %struct.Qcow2DiscardRegion, ptr %6, i32 0, i32 1
  %7 = load i64, ptr %offset1, align 8
  store i64 %7, ptr %_b11, align 8
  %8 = load i64, ptr %_a10, align 8
  %9 = load i64, ptr %_b11, align 8
  %cmp = icmp ult i64 %8, %9
  br i1 %cmp, label %cond.true, label %cond.false

cond.true:                                        ; preds = %for.body
  %10 = load i64, ptr %_a10, align 8
  br label %cond.end

cond.false:                                       ; preds = %for.body
  %11 = load i64, ptr %_b11, align 8
  br label %cond.end

cond.end:                                         ; preds = %cond.false, %cond.true
  %cond = phi i64 [ %10, %cond.true ], [ %11, %cond.false ]
  store i64 %cond, ptr %tmp, align 8
  %12 = load i64, ptr %tmp, align 8
  store i64 %12, ptr %new_start, align 8
  %13 = load i64, ptr %offset.addr, align 8
  %14 = load i64, ptr %length.addr, align 8
  %add = add i64 %13, %14
  store i64 %add, ptr %_a12, align 8
  %15 = load ptr, ptr %d, align 8
  %offset2 = getelementptr inbounds %struct.Qcow2DiscardRegion, ptr %15, i32 0, i32 1
  %16 = load i64, ptr %offset2, align 8
  %17 = load ptr, ptr %d, align 8
  %bytes = getelementptr inbounds %struct.Qcow2DiscardRegion, ptr %17, i32 0, i32 2
  %18 = load i64, ptr %bytes, align 8
  %add3 = add i64 %16, %18
  store i64 %add3, ptr %_b13, align 8
  %19 = load i64, ptr %_a12, align 8
  %20 = load i64, ptr %_b13, align 8
  %cmp5 = icmp ugt i64 %19, %20
  br i1 %cmp5, label %cond.true6, label %cond.false7

cond.true6:                                       ; preds = %cond.end
  %21 = load i64, ptr %_a12, align 8
  br label %cond.end8

cond.false7:                                      ; preds = %cond.end
  %22 = load i64, ptr %_b13, align 8
  br label %cond.end8

cond.end8:                                        ; preds = %cond.false7, %cond.true6
  %cond9 = phi i64 [ %21, %cond.true6 ], [ %22, %cond.false7 ]
  store i64 %cond9, ptr %tmp4, align 8
  %23 = load i64, ptr %tmp4, align 8
  store i64 %23, ptr %new_end, align 8
  %24 = load i64, ptr %new_end, align 8
  %25 = load i64, ptr %new_start, align 8
  %sub = sub i64 %24, %25
  %26 = load i64, ptr %length.addr, align 8
  %27 = load ptr, ptr %d, align 8
  %bytes10 = getelementptr inbounds %struct.Qcow2DiscardRegion, ptr %27, i32 0, i32 2
  %28 = load i64, ptr %bytes10, align 8
  %add11 = add i64 %26, %28
  %cmp12 = icmp ule i64 %sub, %add11
  br i1 %cmp12, label %if.then, label %if.end21

if.then:                                          ; preds = %cond.end8
  %29 = load ptr, ptr %d, align 8
  %bytes13 = getelementptr inbounds %struct.Qcow2DiscardRegion, ptr %29, i32 0, i32 2
  %30 = load i64, ptr %bytes13, align 8
  %31 = load i64, ptr %length.addr, align 8
  %add14 = add i64 %30, %31
  %32 = load i64, ptr %new_end, align 8
  %33 = load i64, ptr %new_start, align 8
  %sub15 = sub i64 %32, %33
  %cmp16 = icmp eq i64 %add14, %sub15
  br i1 %cmp16, label %if.then17, label %if.else

if.then17:                                        ; preds = %if.then
  br label %if.end

if.else:                                          ; preds = %if.then
  call void @__assert_fail(ptr noundef @.str.55, ptr noundef @.str.1, i32 noundef 771, ptr noundef @__PRETTY_FUNCTION__.update_refcount_discard) #10
  unreachable

if.end:                                           ; preds = %if.then17
  %34 = load i64, ptr %new_start, align 8
  %35 = load ptr, ptr %d, align 8
  %offset18 = getelementptr inbounds %struct.Qcow2DiscardRegion, ptr %35, i32 0, i32 1
  store i64 %34, ptr %offset18, align 8
  %36 = load i64, ptr %new_end, align 8
  %37 = load i64, ptr %new_start, align 8
  %sub19 = sub i64 %36, %37
  %38 = load ptr, ptr %d, align 8
  %bytes20 = getelementptr inbounds %struct.Qcow2DiscardRegion, ptr %38, i32 0, i32 2
  store i64 %sub19, ptr %bytes20, align 8
  br label %found

if.end21:                                         ; preds = %cond.end8
  br label %for.inc

for.inc:                                          ; preds = %if.end21
  %39 = load ptr, ptr %d, align 8
  %next22 = getelementptr inbounds %struct.Qcow2DiscardRegion, ptr %39, i32 0, i32 3
  %40 = load ptr, ptr %next22, align 8
  store ptr %40, ptr %d, align 8
  br label %for.cond, !llvm.loop !51

for.end:                                          ; preds = %for.cond
  %call = call noalias ptr @g_malloc(i64 noundef 40) #11
  store ptr %call, ptr %d, align 8
  %41 = load ptr, ptr %d, align 8
  %bs23 = getelementptr inbounds %struct.Qcow2DiscardRegion, ptr %.compoundliteral, i32 0, i32 0
  %42 = load ptr, ptr %bs.addr, align 8
  store ptr %42, ptr %bs23, align 8
  %offset24 = getelementptr inbounds %struct.Qcow2DiscardRegion, ptr %.compoundliteral, i32 0, i32 1
  %43 = load i64, ptr %offset.addr, align 8
  store i64 %43, ptr %offset24, align 8
  %bytes25 = getelementptr inbounds %struct.Qcow2DiscardRegion, ptr %.compoundliteral, i32 0, i32 2
  %44 = load i64, ptr %length.addr, align 8
  store i64 %44, ptr %bytes25, align 8
  %next26 = getelementptr inbounds %struct.Qcow2DiscardRegion, ptr %.compoundliteral, i32 0, i32 3
  call void @llvm.memset.p0.i64(ptr align 8 %next26, i8 0, i64 16, i1 false)
  call void @llvm.memcpy.p0.p0.i64(ptr align 8 %41, ptr align 8 %.compoundliteral, i64 40, i1 false)
  br label %do.body

do.body:                                          ; preds = %for.end
  %45 = load ptr, ptr %d, align 8
  %next27 = getelementptr inbounds %struct.Qcow2DiscardRegion, ptr %45, i32 0, i32 3
  store ptr null, ptr %next27, align 8
  %46 = load ptr, ptr %s, align 8
  %discards28 = getelementptr inbounds %struct.BDRVQcow2State, ptr %46, i32 0, i32 59
  %tql_prev = getelementptr inbounds %struct.QTailQLink, ptr %discards28, i32 0, i32 1
  %47 = load ptr, ptr %tql_prev, align 8
  %48 = load ptr, ptr %d, align 8
  %next29 = getelementptr inbounds %struct.Qcow2DiscardRegion, ptr %48, i32 0, i32 3
  %tql_prev30 = getelementptr inbounds %struct.QTailQLink, ptr %next29, i32 0, i32 1
  store ptr %47, ptr %tql_prev30, align 8
  %49 = load ptr, ptr %d, align 8
  %50 = load ptr, ptr %s, align 8
  %discards31 = getelementptr inbounds %struct.BDRVQcow2State, ptr %50, i32 0, i32 59
  %tql_prev32 = getelementptr inbounds %struct.QTailQLink, ptr %discards31, i32 0, i32 1
  %51 = load ptr, ptr %tql_prev32, align 8
  %tql_next = getelementptr inbounds %struct.QTailQLink, ptr %51, i32 0, i32 0
  store ptr %49, ptr %tql_next, align 8
  %52 = load ptr, ptr %d, align 8
  %next33 = getelementptr inbounds %struct.Qcow2DiscardRegion, ptr %52, i32 0, i32 3
  %53 = load ptr, ptr %s, align 8
  %discards34 = getelementptr inbounds %struct.BDRVQcow2State, ptr %53, i32 0, i32 59
  %tql_prev35 = getelementptr inbounds %struct.QTailQLink, ptr %discards34, i32 0, i32 1
  store ptr %next33, ptr %tql_prev35, align 8
  br label %do.end

do.end:                                           ; preds = %do.body
  br label %found

found:                                            ; preds = %do.end, %if.end
  %54 = load ptr, ptr %s, align 8
  %discards36 = getelementptr inbounds %struct.BDRVQcow2State, ptr %54, i32 0, i32 59
  %55 = load ptr, ptr %discards36, align 8
  store ptr %55, ptr %p, align 8
  br label %for.cond37

for.cond37:                                       ; preds = %for.inc106, %found
  %56 = load ptr, ptr %p, align 8
  %tobool38 = icmp ne ptr %56, null
  br i1 %tobool38, label %land.rhs, label %land.end

land.rhs:                                         ; preds = %for.cond37
  %57 = load ptr, ptr %p, align 8
  %next39 = getelementptr inbounds %struct.Qcow2DiscardRegion, ptr %57, i32 0, i32 3
  %58 = load ptr, ptr %next39, align 8
  store ptr %58, ptr %next, align 8
  br label %land.end

land.end:                                         ; preds = %land.rhs, %for.cond37
  %59 = phi i1 [ false, %for.cond37 ], [ true, %land.rhs ]
  br i1 %59, label %for.body40, label %for.end107

for.body40:                                       ; preds = %land.end
  %60 = load ptr, ptr %p, align 8
  %61 = load ptr, ptr %d, align 8
  %cmp41 = icmp eq ptr %60, %61
  br i1 %cmp41, label %if.then53, label %lor.lhs.false

lor.lhs.false:                                    ; preds = %for.body40
  %62 = load ptr, ptr %p, align 8
  %offset42 = getelementptr inbounds %struct.Qcow2DiscardRegion, ptr %62, i32 0, i32 1
  %63 = load i64, ptr %offset42, align 8
  %64 = load ptr, ptr %d, align 8
  %offset43 = getelementptr inbounds %struct.Qcow2DiscardRegion, ptr %64, i32 0, i32 1
  %65 = load i64, ptr %offset43, align 8
  %66 = load ptr, ptr %d, align 8
  %bytes44 = getelementptr inbounds %struct.Qcow2DiscardRegion, ptr %66, i32 0, i32 2
  %67 = load i64, ptr %bytes44, align 8
  %add45 = add i64 %65, %67
  %cmp46 = icmp ugt i64 %63, %add45
  br i1 %cmp46, label %if.then53, label %lor.lhs.false47

lor.lhs.false47:                                  ; preds = %lor.lhs.false
  %68 = load ptr, ptr %d, align 8
  %offset48 = getelementptr inbounds %struct.Qcow2DiscardRegion, ptr %68, i32 0, i32 1
  %69 = load i64, ptr %offset48, align 8
  %70 = load ptr, ptr %p, align 8
  %offset49 = getelementptr inbounds %struct.Qcow2DiscardRegion, ptr %70, i32 0, i32 1
  %71 = load i64, ptr %offset49, align 8
  %72 = load ptr, ptr %p, align 8
  %bytes50 = getelementptr inbounds %struct.Qcow2DiscardRegion, ptr %72, i32 0, i32 2
  %73 = load i64, ptr %bytes50, align 8
  %add51 = add i64 %71, %73
  %cmp52 = icmp ugt i64 %69, %add51
  br i1 %cmp52, label %if.then53, label %if.end54

if.then53:                                        ; preds = %lor.lhs.false47, %lor.lhs.false, %for.body40
  br label %for.inc106

if.end54:                                         ; preds = %lor.lhs.false47
  %74 = load ptr, ptr %p, align 8
  %offset55 = getelementptr inbounds %struct.Qcow2DiscardRegion, ptr %74, i32 0, i32 1
  %75 = load i64, ptr %offset55, align 8
  %76 = load ptr, ptr %d, align 8
  %offset56 = getelementptr inbounds %struct.Qcow2DiscardRegion, ptr %76, i32 0, i32 1
  %77 = load i64, ptr %offset56, align 8
  %78 = load ptr, ptr %d, align 8
  %bytes57 = getelementptr inbounds %struct.Qcow2DiscardRegion, ptr %78, i32 0, i32 2
  %79 = load i64, ptr %bytes57, align 8
  %add58 = add i64 %77, %79
  %cmp59 = icmp eq i64 %75, %add58
  br i1 %cmp59, label %if.then66, label %lor.lhs.false60

lor.lhs.false60:                                  ; preds = %if.end54
  %80 = load ptr, ptr %d, align 8
  %offset61 = getelementptr inbounds %struct.Qcow2DiscardRegion, ptr %80, i32 0, i32 1
  %81 = load i64, ptr %offset61, align 8
  %82 = load ptr, ptr %p, align 8
  %offset62 = getelementptr inbounds %struct.Qcow2DiscardRegion, ptr %82, i32 0, i32 1
  %83 = load i64, ptr %offset62, align 8
  %84 = load ptr, ptr %p, align 8
  %bytes63 = getelementptr inbounds %struct.Qcow2DiscardRegion, ptr %84, i32 0, i32 2
  %85 = load i64, ptr %bytes63, align 8
  %add64 = add i64 %83, %85
  %cmp65 = icmp eq i64 %81, %add64
  br i1 %cmp65, label %if.then66, label %if.else67

if.then66:                                        ; preds = %lor.lhs.false60, %if.end54
  br label %if.end68

if.else67:                                        ; preds = %lor.lhs.false60
  call void @__assert_fail(ptr noundef @.str.56, ptr noundef @.str.1, i32 noundef 798, ptr noundef @__PRETTY_FUNCTION__.update_refcount_discard) #10
  unreachable

if.end68:                                         ; preds = %if.then66
  br label %do.body69

do.body69:                                        ; preds = %if.end68
  %86 = load ptr, ptr %p, align 8
  %next70 = getelementptr inbounds %struct.Qcow2DiscardRegion, ptr %86, i32 0, i32 3
  %87 = load ptr, ptr %next70, align 8
  %cmp71 = icmp ne ptr %87, null
  br i1 %cmp71, label %if.then72, label %if.else78

if.then72:                                        ; preds = %do.body69
  %88 = load ptr, ptr %p, align 8
  %next73 = getelementptr inbounds %struct.Qcow2DiscardRegion, ptr %88, i32 0, i32 3
  %tql_prev74 = getelementptr inbounds %struct.QTailQLink, ptr %next73, i32 0, i32 1
  %89 = load ptr, ptr %tql_prev74, align 8
  %90 = load ptr, ptr %p, align 8
  %next75 = getelementptr inbounds %struct.Qcow2DiscardRegion, ptr %90, i32 0, i32 3
  %91 = load ptr, ptr %next75, align 8
  %next76 = getelementptr inbounds %struct.Qcow2DiscardRegion, ptr %91, i32 0, i32 3
  %tql_prev77 = getelementptr inbounds %struct.QTailQLink, ptr %next76, i32 0, i32 1
  store ptr %89, ptr %tql_prev77, align 8
  br label %if.end83

if.else78:                                        ; preds = %do.body69
  %92 = load ptr, ptr %p, align 8
  %next79 = getelementptr inbounds %struct.Qcow2DiscardRegion, ptr %92, i32 0, i32 3
  %tql_prev80 = getelementptr inbounds %struct.QTailQLink, ptr %next79, i32 0, i32 1
  %93 = load ptr, ptr %tql_prev80, align 8
  %94 = load ptr, ptr %s, align 8
  %discards81 = getelementptr inbounds %struct.BDRVQcow2State, ptr %94, i32 0, i32 59
  %tql_prev82 = getelementptr inbounds %struct.QTailQLink, ptr %discards81, i32 0, i32 1
  store ptr %93, ptr %tql_prev82, align 8
  br label %if.end83

if.end83:                                         ; preds = %if.else78, %if.then72
  %95 = load ptr, ptr %p, align 8
  %next84 = getelementptr inbounds %struct.Qcow2DiscardRegion, ptr %95, i32 0, i32 3
  %96 = load ptr, ptr %next84, align 8
  %97 = load ptr, ptr %p, align 8
  %next85 = getelementptr inbounds %struct.Qcow2DiscardRegion, ptr %97, i32 0, i32 3
  %tql_prev86 = getelementptr inbounds %struct.QTailQLink, ptr %next85, i32 0, i32 1
  %98 = load ptr, ptr %tql_prev86, align 8
  %tql_next87 = getelementptr inbounds %struct.QTailQLink, ptr %98, i32 0, i32 0
  store ptr %96, ptr %tql_next87, align 8
  %99 = load ptr, ptr %p, align 8
  %next88 = getelementptr inbounds %struct.Qcow2DiscardRegion, ptr %99, i32 0, i32 3
  %tql_prev89 = getelementptr inbounds %struct.QTailQLink, ptr %next88, i32 0, i32 1
  store ptr null, ptr %tql_prev89, align 8
  %100 = load ptr, ptr %p, align 8
  %next90 = getelementptr inbounds %struct.Qcow2DiscardRegion, ptr %100, i32 0, i32 3
  %tql_next91 = getelementptr inbounds %struct.QTailQLink, ptr %next90, i32 0, i32 0
  store ptr null, ptr %tql_next91, align 8
  %101 = load ptr, ptr %p, align 8
  %next92 = getelementptr inbounds %struct.Qcow2DiscardRegion, ptr %101, i32 0, i32 3
  store ptr null, ptr %next92, align 8
  br label %do.end93

do.end93:                                         ; preds = %if.end83
  %102 = load ptr, ptr %d, align 8
  %offset94 = getelementptr inbounds %struct.Qcow2DiscardRegion, ptr %102, i32 0, i32 1
  %103 = load i64, ptr %offset94, align 8
  store i64 %103, ptr %_a14, align 8
  %104 = load ptr, ptr %p, align 8
  %offset95 = getelementptr inbounds %struct.Qcow2DiscardRegion, ptr %104, i32 0, i32 1
  %105 = load i64, ptr %offset95, align 8
  store i64 %105, ptr %_b15, align 8
  %106 = load i64, ptr %_a14, align 8
  %107 = load i64, ptr %_b15, align 8
  %cmp97 = icmp ult i64 %106, %107
  br i1 %cmp97, label %cond.true98, label %cond.false99

cond.true98:                                      ; preds = %do.end93
  %108 = load i64, ptr %_a14, align 8
  br label %cond.end100

cond.false99:                                     ; preds = %do.end93
  %109 = load i64, ptr %_b15, align 8
  br label %cond.end100

cond.end100:                                      ; preds = %cond.false99, %cond.true98
  %cond101 = phi i64 [ %108, %cond.true98 ], [ %109, %cond.false99 ]
  store i64 %cond101, ptr %tmp96, align 8
  %110 = load i64, ptr %tmp96, align 8
  %111 = load ptr, ptr %d, align 8
  %offset102 = getelementptr inbounds %struct.Qcow2DiscardRegion, ptr %111, i32 0, i32 1
  store i64 %110, ptr %offset102, align 8
  %112 = load ptr, ptr %p, align 8
  %bytes103 = getelementptr inbounds %struct.Qcow2DiscardRegion, ptr %112, i32 0, i32 2
  %113 = load i64, ptr %bytes103, align 8
  %114 = load ptr, ptr %d, align 8
  %bytes104 = getelementptr inbounds %struct.Qcow2DiscardRegion, ptr %114, i32 0, i32 2
  %115 = load i64, ptr %bytes104, align 8
  %add105 = add i64 %115, %113
  store i64 %add105, ptr %bytes104, align 8
  %116 = load ptr, ptr %p, align 8
  call void @g_free(ptr noundef %116)
  br label %for.inc106

for.inc106:                                       ; preds = %cond.end100, %if.then53
  %117 = load ptr, ptr %next, align 8
  store ptr %117, ptr %p, align 8
  br label %for.cond37, !llvm.loop !52

for.end107:                                       ; preds = %land.end
  ret void
}