; Function Attrs: nounwind sspstrong uwtable
define internal fastcc void @update_refcount_discard(ptr noundef %bs, i64 noundef %offset, i64 noundef range(i64 -2147483648, 2147483648) %length) unnamed_addr #0 {
entry:
  %opaque = getelementptr inbounds nuw i8, ptr %bs, i64 24
  %0 = load ptr, ptr %opaque, align 8
  %discards = getelementptr inbounds nuw i8, ptr %0, i64 408
  %d.070 = load ptr, ptr %discards, align 8
  %tobool.not71 = icmp eq ptr %d.070, null
  br i1 %tobool.not71, label %for.end, label %for.body.lr.ph

for.body.lr.ph:                                   ; preds = %entry
  %add = add i64 %length, %offset
  br label %for.body

for.body:                                         ; preds = %for.body.lr.ph, %for.inc
  %d.072 = phi ptr [ %d.070, %for.body.lr.ph ], [ %d.0, %for.inc ]
  %offset1 = getelementptr inbounds nuw i8, ptr %d.072, i64 8
  %1 = load i64, ptr %offset1, align 8
  %cond = tail call i64 @llvm.umin.i64(i64 %offset, i64 %1)
  %bytes = getelementptr inbounds nuw i8, ptr %d.072, i64 16
  %2 = load i64, ptr %bytes, align 8
  %add3 = add i64 %2, %1
  %cond9 = tail call i64 @llvm.umax.i64(i64 %add, i64 %add3)
  %sub = sub i64 %cond9, %cond
  %add11 = add i64 %2, %length
  %cmp12.not = icmp ugt i64 %sub, %add11
  br i1 %cmp12.not, label %for.inc, label %if.then

if.then:                                          ; preds = %for.body
  %cmp16 = icmp eq i64 %add11, %sub
  br i1 %cmp16, label %if.end, label %if.else

if.else:                                          ; preds = %if.then
  tail call void @__assert_fail(ptr noundef nonnull @.str.55, ptr noundef nonnull @.str.1, i32 noundef 771, ptr noundef nonnull @__PRETTY_FUNCTION__.update_refcount_discard) #15
  unreachable

if.end:                                           ; preds = %if.then
  %bytes.le = getelementptr inbounds nuw i8, ptr %d.072, i64 16
  %offset1.le = getelementptr inbounds nuw i8, ptr %d.072, i64 8
  store i64 %cond, ptr %offset1.le, align 8
  store i64 %sub, ptr %bytes.le, align 8
  br label %found

for.inc:                                          ; preds = %for.body
  %next22 = getelementptr inbounds nuw i8, ptr %d.072, i64 24
  %d.0 = load ptr, ptr %next22, align 8
  %tobool.not = icmp eq ptr %d.0, null
  br i1 %tobool.not, label %for.end, label %for.body, !llvm.loop !54

for.end:                                          ; preds = %for.inc, %entry
  %call = tail call noalias dereferenceable_or_null(40) ptr @g_malloc(i64 noundef 40) #16
  store ptr %bs, ptr %call, align 8
  %.compoundliteral.sroa.2.0..sroa_idx = getelementptr inbounds nuw i8, ptr %call, i64 8
  store i64 %offset, ptr %.compoundliteral.sroa.2.0..sroa_idx, align 8
  %.compoundliteral.sroa.3.0..sroa_idx = getelementptr inbounds nuw i8, ptr %call, i64 16
  store i64 %length, ptr %.compoundliteral.sroa.3.0..sroa_idx, align 8
  %.compoundliteral.sroa.4.0..sroa_idx = getelementptr inbounds nuw i8, ptr %call, i64 24
  %tql_prev = getelementptr inbounds nuw i8, ptr %0, i64 416
  store i64 0, ptr %.compoundliteral.sroa.4.0..sroa_idx, align 8
  %3 = load ptr, ptr %tql_prev, align 8
  %tql_prev30 = getelementptr inbounds nuw i8, ptr %call, i64 32
  store ptr %3, ptr %tql_prev30, align 8
  store ptr %call, ptr %3, align 8
  store ptr %.compoundliteral.sroa.4.0..sroa_idx, ptr %tql_prev, align 8
  br label %found

found:                                            ; preds = %for.end, %if.end
  %d.1 = phi ptr [ %d.072, %if.end ], [ %call, %for.end ]
  %4 = load ptr, ptr %discards, align 8
  %tobool38.not73 = icmp eq ptr %4, null
  br i1 %tobool38.not73, label %for.end107, label %land.rhs.lr.ph

land.rhs.lr.ph:                                   ; preds = %found
  %offset43 = getelementptr inbounds nuw i8, ptr %d.1, i64 8
  %bytes44 = getelementptr inbounds nuw i8, ptr %d.1, i64 16
  %tql_prev82 = getelementptr inbounds nuw i8, ptr %0, i64 416
  br label %land.rhs

land.rhs:                                         ; preds = %land.rhs.lr.ph, %for.inc106
  %p.074 = phi ptr [ %4, %land.rhs.lr.ph ], [ %5, %for.inc106 ]
  %next39 = getelementptr inbounds nuw i8, ptr %p.074, i64 24
  %5 = load ptr, ptr %next39, align 8
  %cmp41 = icmp eq ptr %p.074, %d.1
  br i1 %cmp41, label %for.inc106, label %lor.lhs.false

lor.lhs.false:                                    ; preds = %land.rhs
  %offset42 = getelementptr inbounds nuw i8, ptr %p.074, i64 8
  %6 = load i64, ptr %offset42, align 8
  %7 = load i64, ptr %offset43, align 8
  %8 = load i64, ptr %bytes44, align 8
  %add45 = add i64 %8, %7
  %cmp46 = icmp ugt i64 %6, %add45
  br i1 %cmp46, label %for.inc106, label %lor.lhs.false47

lor.lhs.false47:                                  ; preds = %lor.lhs.false
  %bytes50 = getelementptr inbounds nuw i8, ptr %p.074, i64 16
  %9 = load i64, ptr %bytes50, align 8
  %add51 = add i64 %9, %6
  %cmp52 = icmp ugt i64 %7, %add51
  br i1 %cmp52, label %for.inc106, label %if.end54

if.end54:                                         ; preds = %lor.lhs.false47
  %cmp59 = icmp eq i64 %6, %add45
  %cmp65 = icmp eq i64 %7, %add51
  %or.cond = or i1 %cmp59, %cmp65
  br i1 %or.cond, label %do.body69, label %if.else67

if.else67:                                        ; preds = %if.end54
  tail call void @__assert_fail(ptr noundef nonnull @.str.56, ptr noundef nonnull @.str.1, i32 noundef 798, ptr noundef nonnull @__PRETTY_FUNCTION__.update_refcount_discard) #15
  unreachable

do.body69:                                        ; preds = %if.end54
  %cmp71.not = icmp eq ptr %5, null
  %tql_prev80 = getelementptr inbounds nuw i8, ptr %p.074, i64 32
  %10 = load ptr, ptr %tql_prev80, align 8
  br i1 %cmp71.not, label %if.else78, label %if.then72

if.then72:                                        ; preds = %do.body69
  %tql_prev77 = getelementptr inbounds nuw i8, ptr %5, i64 32
  store ptr %10, ptr %tql_prev77, align 8
  br label %if.end83

if.else78:                                        ; preds = %do.body69
  store ptr %10, ptr %tql_prev82, align 8
  br label %if.end83

if.end83:                                         ; preds = %if.else78, %if.then72
  %11 = load ptr, ptr %next39, align 8
  store ptr %11, ptr %10, align 8
  tail call void @llvm.memset.p0.i64(ptr noundef nonnull align 8 dereferenceable(16) %next39, i8 0, i64 16, i1 false)
  %12 = load i64, ptr %offset43, align 8
  %13 = load i64, ptr %offset42, align 8
  %cond101 = tail call i64 @llvm.umin.i64(i64 %12, i64 %13)
  store i64 %cond101, ptr %offset43, align 8
  %14 = load i64, ptr %bytes50, align 8
  %15 = load i64, ptr %bytes44, align 8
  %add105 = add i64 %15, %14
  store i64 %add105, ptr %bytes44, align 8
  tail call void @g_free(ptr noundef nonnull %p.074) #17
  br label %for.inc106

for.inc106:                                       ; preds = %land.rhs, %lor.lhs.false, %lor.lhs.false47, %if.end83
  %tobool38.not = icmp eq ptr %5, null
  br i1 %tobool38.not, label %for.end107, label %land.rhs, !llvm.loop !55

for.end107:                                       ; preds = %for.inc106, %found
  ret void
}